target datalayout = "e-m:e-p270:32:32-p271:32:32-p272:64:64-i64:64-i128:128-f80:128-n8:16:32:64-S128"
target triple = "x86_64-pc-linux-gnu"

%struct.PJconsts = type { ptr, ptr, ptr, ptr, ptr, ptr, ptr, ptr, ptr, ptr, ptr, ptr, i32, ptr, ptr, ptr, ptr, ptr, ptr, ptr, ptr, double, double, double, double, double, double, double, double, double, double, double, double, double, double, double, double, double, double, double, double, double, double, i32, i32, i32, i32, i32, i32, i32, i32, i32, i32, i32, ptr, ptr, ptr, ptr, ptr, ptr, double, double, double, double, double, double, double, double, double, double, double, i32, [7 x double], i32, ptr, ptr, double, double, i32, [4 x i8], %"class.std::shared_ptr", i8, double, i8, %"class.std::__cxx11::basic_string", %"class.std::__cxx11::basic_string", %"class.std::__cxx11::basic_string", i8, %"class.std::vector", i32, %"class.std::vector.3", i32, i8, i8, i8, ptr }
%"class.std::shared_ptr" = type { %"class.std::__shared_ptr" }
%"class.std::__shared_ptr" = type { ptr, %"class.std::__shared_count" }
%"class.std::__shared_count" = type { ptr }
%"class.std::__cxx11::basic_string" = type { %"struct.std::__cxx11::basic_string<char>::_Alloc_hider", i64, %union.anon }
%"struct.std::__cxx11::basic_string<char>::_Alloc_hider" = type { ptr }
%union.anon = type { i64, [8 x i8] }
%"class.std::vector" = type { %"struct.std::_Vector_base" }
%"struct.std::_Vector_base" = type { %"struct.std::_Vector_base<osgeo::proj::operation::GridDescription, std::allocator<osgeo::proj::operation::GridDescription>>::_Vector_impl" }
%"struct.std::_Vector_base<osgeo::proj::operation::GridDescription, std::allocator<osgeo::proj::operation::GridDescription>>::_Vector_impl" = type { %"struct.std::_Vector_base<osgeo::proj::operation::GridDescription, std::allocator<osgeo::proj::operation::GridDescription>>::_Vector_impl_data" }
%"struct.std::_Vector_base<osgeo::proj::operation::GridDescription, std::allocator<osgeo::proj::operation::GridDescription>>::_Vector_impl_data" = type { ptr, ptr, ptr }
%"class.std::vector.3" = type { %"struct.std::_Vector_base.4" }
%"struct.std::_Vector_base.4" = type { %"struct.std::_Vector_base<PJCoordOperation, std::allocator<PJCoordOperation>>::_Vector_impl" }
%"struct.std::_Vector_base<PJCoordOperation, std::allocator<PJCoordOperation>>::_Vector_impl" = type { %"struct.std::_Vector_base<PJCoordOperation, std::allocator<PJCoordOperation>>::_Vector_impl_data" }
%"struct.std::_Vector_base<PJCoordOperation, std::allocator<PJCoordOperation>>::_Vector_impl_data" = type { ptr, ptr, ptr }
%"struct.(anonymous namespace)::pj_imw_p_data" = type { double, double, double, double, double, double, double, double, double, double, double, double, ptr, i32 }
%struct.PJ_XY = type { double, double }
%struct.PJ_LP = type { double, double }

; Function Attrs: mustprogress uwtable
define internal { double, double } @_ZL7loc_for5PJ_LPP8PJconstsPd(double %0, double %1, ptr noundef %2, ptr noundef %3) #0 {
  %5 = alloca %struct.PJ_XY, align 8
  %6 = alloca %struct.PJ_LP, align 8
  %7 = alloca ptr, align 8
  %8 = alloca ptr, align 8
  %9 = alloca ptr, align 8
  %10 = alloca double, align 8
  %11 = alloca double, align 8
  %12 = alloca double, align 8
  %13 = alloca double, align 8
  %14 = alloca double, align 8
  %15 = alloca double, align 8
  %16 = alloca double, align 8
  %17 = alloca double, align 8
  %18 = alloca double, align 8
  %19 = alloca double, align 8
  %20 = alloca double, align 8
  %21 = alloca double, align 8
  %22 = getelementptr inbounds nuw { double, double }, ptr %6, i32 0, i32 0
  store double %0, ptr %22, align 8
  %23 = getelementptr inbounds nuw { double, double }, ptr %6, i32 0, i32 1
  store double %1, ptr %23, align 8
  store ptr %2, ptr %7, align 8, !tbaa !3
  store ptr %3, ptr %8, align 8, !tbaa !67
  call void @llvm.lifetime.start.p0(i64 8, ptr %9) #9
  %24 = load ptr, ptr %7, align 8, !tbaa !3
  %25 = getelementptr inbounds nuw %struct.PJconsts, ptr %24, i32 0, i32 11
  %26 = load ptr, ptr %25, align 8, !tbaa !43
  store ptr %26, ptr %9, align 8, !tbaa !41
  %27 = getelementptr inbounds nuw %struct.PJ_LP, ptr %6, i32 0, i32 1
  %28 = load double, ptr %27, align 8, !tbaa !70
  %29 = fcmp oeq double %28, 0.000000e+00
  br i1 %29, label %30, label %35

30:                                               ; preds = %4
  %31 = getelementptr inbounds nuw %struct.PJ_LP, ptr %6, i32 0, i32 0
  %32 = load double, ptr %31, align 8, !tbaa !74
  %33 = getelementptr inbounds nuw %struct.PJ_XY, ptr %5, i32 0, i32 0
  store double %32, ptr %33, align 8, !tbaa !72
  %34 = getelementptr inbounds nuw %struct.PJ_XY, ptr %5, i32 0, i32 1
  store double 0.000000e+00, ptr %34, align 8, !tbaa !75
  br label %239

35:                                               ; preds = %4
  call void @llvm.lifetime.start.p0(i64 8, ptr %10) #9
  call void @llvm.lifetime.start.p0(i64 8, ptr %11) #9
  call void @llvm.lifetime.start.p0(i64 8, ptr %12) #9
  call void @llvm.lifetime.start.p0(i64 8, ptr %13) #9
  call void @llvm.lifetime.start.p0(i64 8, ptr %14) #9
  call void @llvm.lifetime.start.p0(i64 8, ptr %15) #9
  call void @llvm.lifetime.start.p0(i64 8, ptr %16) #9
  call void @llvm.lifetime.start.p0(i64 8, ptr %17) #9
  call void @llvm.lifetime.start.p0(i64 8, ptr %18) #9
  call void @llvm.lifetime.start.p0(i64 8, ptr %19) #9
  call void @llvm.lifetime.start.p0(i64 8, ptr %20) #9
  call void @llvm.lifetime.start.p0(i64 8, ptr %21) #9
  %36 = getelementptr inbounds nuw %struct.PJ_LP, ptr %6, i32 0, i32 1
  %37 = load double, ptr %36, align 8, !tbaa !70
  %38 = call double @sin(double noundef %37) #9, !tbaa !48
  store double %38, ptr %18, align 8, !tbaa !51
  %39 = getelementptr inbounds nuw %struct.PJ_LP, ptr %6, i32 0, i32 1
  %40 = load double, ptr %39, align 8, !tbaa !70
  %41 = load double, ptr %18, align 8, !tbaa !51
  %42 = getelementptr inbounds nuw %struct.PJ_LP, ptr %6, i32 0, i32 1
  %43 = load double, ptr %42, align 8, !tbaa !70
  %44 = call double @cos(double noundef %43) #9, !tbaa !48
  %45 = load ptr, ptr %9, align 8, !tbaa !41
  %46 = getelementptr inbounds nuw %"struct.(anonymous namespace)::pj_imw_p_data", ptr %45, i32 0, i32 12
  %47 = load ptr, ptr %46, align 8, !tbaa !45
  %48 = call noundef double @_Z7pj_mlfndddPKd(double noundef %40, double noundef %41, double noundef %44, ptr noundef %47)
  store double %48, ptr %17, align 8, !tbaa !51
  %49 = load ptr, ptr %9, align 8, !tbaa !41
  %50 = getelementptr inbounds nuw %"struct.(anonymous namespace)::pj_imw_p_data", ptr %49, i32 0, i32 1
  %51 = load double, ptr %50, align 8, !tbaa !62
  %52 = load ptr, ptr %9, align 8, !tbaa !41
  %53 = getelementptr inbounds nuw %"struct.(anonymous namespace)::pj_imw_p_data", ptr %52, i32 0, i32 3
  %54 = load double, ptr %53, align 8, !tbaa !63
  %55 = load double, ptr %17, align 8, !tbaa !51
  %56 = call double @llvm.fmuladd.f64(double %54, double %55, double %51)
  store double %56, ptr %10, align 8, !tbaa !51
  %57 = load ptr, ptr %9, align 8, !tbaa !41
  %58 = getelementptr inbounds nuw %"struct.(anonymous namespace)::pj_imw_p_data", ptr %57, i32 0, i32 0
  %59 = load double, ptr %58, align 8, !tbaa !60
  %60 = load ptr, ptr %9, align 8, !tbaa !41
  %61 = getelementptr inbounds nuw %"struct.(anonymous namespace)::pj_imw_p_data", ptr %60, i32 0, i32 2
  %62 = load double, ptr %61, align 8, !tbaa !61
  %63 = load double, ptr %17, align 8, !tbaa !51
  %64 = call double @llvm.fmuladd.f64(double %62, double %63, double %59)
  store double %64, ptr %11, align 8, !tbaa !51
  %65 = getelementptr inbounds nuw %struct.PJ_LP, ptr %6, i32 0, i32 1
  %66 = load double, ptr %65, align 8, !tbaa !70
  %67 = call double @tan(double noundef %66) #9, !tbaa !48
  %68 = load ptr, ptr %7, align 8, !tbaa !3
  %69 = getelementptr inbounds nuw %struct.PJconsts, ptr %68, i32 0, i32 27
  %70 = load double, ptr %69, align 8, !tbaa !68
  %71 = load double, ptr %18, align 8, !tbaa !51
  %72 = fmul double %70, %71
  %73 = load double, ptr %18, align 8, !tbaa !51
  %74 = fneg double %72
  %75 = call double @llvm.fmuladd.f64(double %74, double %73, double 1.000000e+00)
  %76 = call double @sqrt(double noundef %75) #9, !tbaa !48
  %77 = fmul double %67, %76
  %78 = fdiv double 1.000000e+00, %77
  store double %78, ptr %20, align 8, !tbaa !51
  %79 = load double, ptr %20, align 8, !tbaa !51
  %80 = load double, ptr %20, align 8, !tbaa !51
  %81 = load double, ptr %10, align 8, !tbaa !51
  %82 = load double, ptr %10, align 8, !tbaa !51
  %83 = fmul double %81, %82
  %84 = fneg double %83
  %85 = call double @llvm.fmuladd.f64(double %79, double %80, double %84)
  %86 = call double @sqrt(double noundef %85) #9, !tbaa !48
  store double %86, ptr %21, align 8, !tbaa !51
  %87 = getelementptr inbounds nuw %struct.PJ_LP, ptr %6, i32 0, i32 1
  %88 = load double, ptr %87, align 8, !tbaa !70
  %89 = fcmp olt double %88, 0.000000e+00
  br i1 %89, label %90, label %93

90:                                               ; preds = %35
  %91 = load double, ptr %21, align 8, !tbaa !51
  %92 = fneg double %91
  store double %92, ptr %21, align 8, !tbaa !51
  br label %93

93:                                               ; preds = %90, %35
  %94 = load double, ptr %11, align 8, !tbaa !51
  %95 = load double, ptr %20, align 8, !tbaa !51
  %96 = fsub double %94, %95
  %97 = load double, ptr %21, align 8, !tbaa !51
  %98 = fadd double %97, %96
  store double %98, ptr %21, align 8, !tbaa !51
  %99 = load ptr, ptr %9, align 8, !tbaa !41
  %100 = getelementptr inbounds nuw %"struct.(anonymous namespace)::pj_imw_p_data", ptr %99, i32 0, i32 13
  %101 = load i32, ptr %100, align 8, !tbaa !56
  %102 = icmp eq i32 %101, -1
  br i1 %102, label %103, label %109

103:                                              ; preds = %93
  %104 = getelementptr inbounds nuw %struct.PJ_LP, ptr %6, i32 0, i32 0
  %105 = load double, ptr %104, align 8, !tbaa !74
  store double %105, ptr %12, align 8, !tbaa !51
  %106 = load ptr, ptr %9, align 8, !tbaa !41
  %107 = getelementptr inbounds nuw %"struct.(anonymous namespace)::pj_imw_p_data", ptr %106, i32 0, i32 8
  %108 = load double, ptr %107, align 8, !tbaa !59
  store double %108, ptr %13, align 8, !tbaa !51
  br label %132

109:                                              ; preds = %93
  %110 = getelementptr inbounds nuw %struct.PJ_LP, ptr %6, i32 0, i32 0
  %111 = load double, ptr %110, align 8, !tbaa !74
  %112 = load ptr, ptr %9, align 8, !tbaa !41
  %113 = getelementptr inbounds nuw %"struct.(anonymous namespace)::pj_imw_p_data", ptr %112, i32 0, i32 7
  %114 = load double, ptr %113, align 8, !tbaa !58
  %115 = fmul double %111, %114
  store double %115, ptr %19, align 8, !tbaa !51
  %116 = load ptr, ptr %9, align 8, !tbaa !41
  %117 = getelementptr inbounds nuw %"struct.(anonymous namespace)::pj_imw_p_data", ptr %116, i32 0, i32 5
  %118 = load double, ptr %117, align 8, !tbaa !78
  %119 = load double, ptr %19, align 8, !tbaa !51
  %120 = call double @sin(double noundef %119) #9, !tbaa !48
  %121 = fmul double %118, %120
  store double %121, ptr %12, align 8, !tbaa !51
  %122 = load ptr, ptr %9, align 8, !tbaa !41
  %123 = getelementptr inbounds nuw %"struct.(anonymous namespace)::pj_imw_p_data", ptr %122, i32 0, i32 8
  %124 = load double, ptr %123, align 8, !tbaa !59
  %125 = load ptr, ptr %9, align 8, !tbaa !41
  %126 = getelementptr inbounds nuw %"struct.(anonymous namespace)::pj_imw_p_data", ptr %125, i32 0, i32 5
  %127 = load double, ptr %126, align 8, !tbaa !78
  %128 = load double, ptr %19, align 8, !tbaa !51
  %129 = call double @cos(double noundef %128) #9, !tbaa !48
  %130 = fsub double 1.000000e+00, %129
  %131 = call double @llvm.fmuladd.f64(double %127, double %130, double %124)
  store double %131, ptr %13, align 8, !tbaa !51
  br label %132

132:                                              ; preds = %109, %103
  %133 = load ptr, ptr %9, align 8, !tbaa !41
  %134 = getelementptr inbounds nuw %"struct.(anonymous namespace)::pj_imw_p_data", ptr %133, i32 0, i32 13
  %135 = load i32, ptr %134, align 8, !tbaa !56
  %136 = icmp eq i32 %135, 1
  br i1 %136, label %137, label %141

137:                                              ; preds = %132
  %138 = getelementptr inbounds nuw %struct.PJ_LP, ptr %6, i32 0, i32 0
  %139 = load double, ptr %138, align 8, !tbaa !74
  store double %139, ptr %14, align 8, !tbaa !51
  %140 = load ptr, ptr %8, align 8, !tbaa !67
  store double 0.000000e+00, ptr %140, align 8, !tbaa !51
  br label %162

141:                                              ; preds = %132
  %142 = getelementptr inbounds nuw %struct.PJ_LP, ptr %6, i32 0, i32 0
  %143 = load double, ptr %142, align 8, !tbaa !74
  %144 = load ptr, ptr %9, align 8, !tbaa !41
  %145 = getelementptr inbounds nuw %"struct.(anonymous namespace)::pj_imw_p_data", ptr %144, i32 0, i32 6
  %146 = load double, ptr %145, align 8, !tbaa !57
  %147 = fmul double %143, %146
  store double %147, ptr %19, align 8, !tbaa !51
  %148 = load ptr, ptr %9, align 8, !tbaa !41
  %149 = getelementptr inbounds nuw %"struct.(anonymous namespace)::pj_imw_p_data", ptr %148, i32 0, i32 4
  %150 = load double, ptr %149, align 8, !tbaa !79
  %151 = load double, ptr %19, align 8, !tbaa !51
  %152 = call double @sin(double noundef %151) #9, !tbaa !48
  %153 = fmul double %150, %152
  store double %153, ptr %14, align 8, !tbaa !51
  %154 = load ptr, ptr %9, align 8, !tbaa !41
  %155 = getelementptr inbounds nuw %"struct.(anonymous namespace)::pj_imw_p_data", ptr %154, i32 0, i32 4
  %156 = load double, ptr %155, align 8, !tbaa !79
  %157 = load double, ptr %19, align 8, !tbaa !51
  %158 = call double @cos(double noundef %157) #9, !tbaa !48
  %159 = fsub double 1.000000e+00, %158
  %160 = fmul double %156, %159
  %161 = load ptr, ptr %8, align 8, !tbaa !67
  store double %160, ptr %161, align 8, !tbaa !51
  br label %162

162:                                              ; preds = %141, %137
  %163 = load double, ptr %12, align 8, !tbaa !51
  %164 = load double, ptr %14, align 8, !tbaa !51
  %165 = fsub double %163, %164
  %166 = load double, ptr %13, align 8, !tbaa !51
  %167 = load ptr, ptr %8, align 8, !tbaa !67
  %168 = load double, ptr %167, align 8, !tbaa !51
  %169 = fsub double %166, %168
  %170 = fdiv double %165, %169
  store double %170, ptr %15, align 8, !tbaa !51
  %171 = load double, ptr %14, align 8, !tbaa !51
  %172 = load double, ptr %15, align 8, !tbaa !51
  %173 = load double, ptr %21, align 8, !tbaa !51
  %174 = load double, ptr %20, align 8, !tbaa !51
  %175 = fadd double %173, %174
  %176 = load ptr, ptr %8, align 8, !tbaa !67
  %177 = load double, ptr %176, align 8, !tbaa !51
  %178 = fsub double %175, %177
  %179 = call double @llvm.fmuladd.f64(double %172, double %178, double %171)
  store double %179, ptr %16, align 8, !tbaa !51
  %180 = load double, ptr %15, align 8, !tbaa !51
  %181 = load double, ptr %20, align 8, !tbaa !51
  %182 = load double, ptr %20, align 8, !tbaa !51
  %183 = fmul double %181, %182
  %184 = load double, ptr %15, align 8, !tbaa !51
  %185 = load double, ptr %15, align 8, !tbaa !51
  %186 = call double @llvm.fmuladd.f64(double %184, double %185, double 1.000000e+00)
  %187 = load double, ptr %16, align 8, !tbaa !51
  %188 = load double, ptr %16, align 8, !tbaa !51
  %189 = fmul double %187, %188
  %190 = fneg double %189
  %191 = call double @llvm.fmuladd.f64(double %183, double %186, double %190)
  %192 = call double @sqrt(double noundef %191) #9, !tbaa !48
  %193 = fmul double %180, %192
  %194 = getelementptr inbounds nuw %struct.PJ_XY, ptr %5, i32 0, i32 0
  store double %193, ptr %194, align 8, !tbaa !72
  %195 = getelementptr inbounds nuw %struct.PJ_LP, ptr %6, i32 0, i32 1
  %196 = load double, ptr %195, align 8, !tbaa !70
  %197 = fcmp ogt double %196, 0.000000e+00
  br i1 %197, label %198, label %203

198:                                              ; preds = %162
  %199 = getelementptr inbounds nuw %struct.PJ_XY, ptr %5, i32 0, i32 0
  %200 = load double, ptr %199, align 8, !tbaa !72
  %201 = fneg double %200
  %202 = getelementptr inbounds nuw %struct.PJ_XY, ptr %5, i32 0, i32 0
  store double %201, ptr %202, align 8, !tbaa !72
  br label %203

203:                                              ; preds = %198, %162
  %204 = load double, ptr %16, align 8, !tbaa !51
  %205 = getelementptr inbounds nuw %struct.PJ_XY, ptr %5, i32 0, i32 0
  %206 = load double, ptr %205, align 8, !tbaa !72
  %207 = fadd double %204, %206
  %208 = load double, ptr %15, align 8, !tbaa !51
  %209 = load double, ptr %15, align 8, !tbaa !51
  %210 = call double @llvm.fmuladd.f64(double %208, double %209, double 1.000000e+00)
  %211 = fdiv double %207, %210
  %212 = getelementptr inbounds nuw %struct.PJ_XY, ptr %5, i32 0, i32 0
  store double %211, ptr %212, align 8, !tbaa !72
  %213 = load double, ptr %20, align 8, !tbaa !51
  %214 = load double, ptr %20, align 8, !tbaa !51
  %215 = getelementptr inbounds nuw %struct.PJ_XY, ptr %5, i32 0, i32 0
  %216 = load double, ptr %215, align 8, !tbaa !72
  %217 = getelementptr inbounds nuw %struct.PJ_XY, ptr %5, i32 0, i32 0
  %218 = load double, ptr %217, align 8, !tbaa !72
  %219 = fmul double %216, %218
  %220 = fneg double %219
  %221 = call double @llvm.fmuladd.f64(double %213, double %214, double %220)
  %222 = call double @sqrt(double noundef %221) #9, !tbaa !48
  %223 = getelementptr inbounds nuw %struct.PJ_XY, ptr %5, i32 0, i32 1
  store double %222, ptr %223, align 8, !tbaa !75
  %224 = getelementptr inbounds nuw %struct.PJ_LP, ptr %6, i32 0, i32 1
  %225 = load double, ptr %224, align 8, !tbaa !70
  %226 = fcmp ogt double %225, 0.000000e+00
  br i1 %226, label %227, label %232

227:                                              ; preds = %203
  %228 = getelementptr inbounds nuw %struct.PJ_XY, ptr %5, i32 0, i32 1
  %229 = load double, ptr %228, align 8, !tbaa !75
  %230 = fneg double %229
  %231 = getelementptr inbounds nuw %struct.PJ_XY, ptr %5, i32 0, i32 1
  store double %230, ptr %231, align 8, !tbaa !75
  br label %232

232:                                              ; preds = %227, %203
  %233 = load double, ptr %21, align 8, !tbaa !51
  %234 = load double, ptr %20, align 8, !tbaa !51
  %235 = fadd double %233, %234
  %236 = getelementptr inbounds nuw %struct.PJ_XY, ptr %5, i32 0, i32 1
  %237 = load double, ptr %236, align 8, !tbaa !75
  %238 = fadd double %237, %235
  store double %238, ptr %236, align 8, !tbaa !75
  call void @llvm.lifetime.end.p0(i64 8, ptr %21) #9
  call void @llvm.lifetime.end.p0(i64 8, ptr %20) #9
  call void @llvm.lifetime.end.p0(i64 8, ptr %19) #9
  call void @llvm.lifetime.end.p0(i64 8, ptr %18) #9
  call void @llvm.lifetime.end.p0(i64 8, ptr %17) #9
  call void @llvm.lifetime.end.p0(i64 8, ptr %16) #9
  call void @llvm.lifetime.end.p0(i64 8, ptr %15) #9
  call void @llvm.lifetime.end.p0(i64 8, ptr %14) #9
  call void @llvm.lifetime.end.p0(i64 8, ptr %13) #9
  call void @llvm.lifetime.end.p0(i64 8, ptr %12) #9
  call void @llvm.lifetime.end.p0(i64 8, ptr %11) #9
  call void @llvm.lifetime.end.p0(i64 8, ptr %10) #9
  br label %239

239:                                              ; preds = %232, %30
  call void @llvm.lifetime.end.p0(i64 8, ptr %9) #9
  %240 = load { double, double }, ptr %5, align 8
  ret { double, double } %240
}