; Function Attrs: mustprogress uwtable
define internal fastcc { double, double } @_ZL7loc_for5PJ_LPP8PJconstsPd(double %0, double %1, ptr noundef readonly captures(none) %2, ptr noundef nonnull writeonly captures(none) %3) unnamed_addr #0 {
  %5 = getelementptr inbounds nuw i8, ptr %2, i64 88
  %6 = load ptr, ptr %5, align 8, !tbaa !40
  %7 = fcmp oeq double %1, 0.000000e+00
  br i1 %7, label %94, label %8

8:                                                ; preds = %4
  %9 = tail call double @sin(double noundef %1) #8, !tbaa !51
  %10 = tail call double @cos(double noundef %1) #8, !tbaa !51
  %11 = getelementptr inbounds nuw i8, ptr %6, i64 96
  %12 = load ptr, ptr %11, align 8, !tbaa !42
  %13 = tail call noundef double @_Z7pj_mlfndddPKd(double noundef %1, double noundef %9, double noundef %10, ptr noundef %12)
  %14 = getelementptr inbounds nuw i8, ptr %6, i64 8
  %15 = load double, ptr %14, align 8, !tbaa !59
  %16 = getelementptr inbounds nuw i8, ptr %6, i64 24
  %17 = load double, ptr %16, align 8, !tbaa !60
  %18 = tail call double @llvm.fmuladd.f64(double %17, double %13, double %15)
  %19 = load double, ptr %6, align 8, !tbaa !57
  %20 = getelementptr inbounds nuw i8, ptr %6, i64 16
  %21 = load double, ptr %20, align 8, !tbaa !58
  %22 = tail call double @llvm.fmuladd.f64(double %21, double %13, double %19)
  %23 = tail call double @tan(double noundef %1) #8, !tbaa !51
  %24 = getelementptr inbounds nuw i8, ptr %2, i64 216
  %25 = load double, ptr %24, align 8, !tbaa !53
  %26 = fneg double %9
  %27 = fmul double %25, %26
  %28 = tail call double @llvm.fmuladd.f64(double %27, double %9, double 1.000000e+00)
  %29 = tail call double @sqrt(double noundef %28) #8, !tbaa !51
  %30 = fmul double %23, %29
  %31 = fdiv double 1.000000e+00, %30
  %32 = fneg double %18
  %33 = fmul double %18, %32
  %34 = tail call double @llvm.fmuladd.f64(double %31, double %31, double %33)
  %35 = tail call double @sqrt(double noundef %34) #8, !tbaa !51
  %36 = fcmp olt double %1, 0.000000e+00
  %37 = fneg double %35
  %.0 = select i1 %36, double %37, double %35
  %38 = fsub double %22, %31
  %39 = fadd double %.0, %38
  %40 = getelementptr inbounds nuw i8, ptr %6, i64 104
  %41 = load i32, ptr %40, align 8, !tbaa !50
  %42 = icmp eq i32 %41, -1
  br i1 %42, label %.thread, label %45

.thread:                                          ; preds = %8
  %43 = getelementptr inbounds nuw i8, ptr %6, i64 64
  %44 = load double, ptr %43, align 8, !tbaa !56
  br label %59

45:                                               ; preds = %8
  %46 = getelementptr inbounds nuw i8, ptr %6, i64 56
  %47 = load double, ptr %46, align 8, !tbaa !55
  %48 = fmul double %0, %47
  %49 = getelementptr inbounds nuw i8, ptr %6, i64 40
  %50 = load double, ptr %49, align 8, !tbaa !66
  %51 = tail call double @sin(double noundef %48) #8, !tbaa !51
  %52 = fmul double %50, %51
  %53 = getelementptr inbounds nuw i8, ptr %6, i64 64
  %54 = load double, ptr %53, align 8, !tbaa !56
  %55 = tail call double @cos(double noundef %48) #8, !tbaa !51
  %56 = fsub double 1.000000e+00, %55
  %57 = tail call double @llvm.fmuladd.f64(double %50, double %56, double %54)
  %58 = icmp eq i32 %41, 1
  br i1 %58, label %70, label %59

59:                                               ; preds = %.thread, %45
  %.07583 = phi double [ %0, %.thread ], [ %52, %45 ]
  %.07681 = phi double [ %44, %.thread ], [ %57, %45 ]
  %60 = getelementptr inbounds nuw i8, ptr %6, i64 48
  %61 = load double, ptr %60, align 8, !tbaa !54
  %62 = fmul double %0, %61
  %63 = getelementptr inbounds nuw i8, ptr %6, i64 32
  %64 = load double, ptr %63, align 8, !tbaa !67
  %65 = tail call double @sin(double noundef %62) #8, !tbaa !51
  %66 = fmul double %64, %65
  %67 = tail call double @cos(double noundef %62) #8, !tbaa !51
  %68 = fsub double 1.000000e+00, %67
  %69 = fmul double %64, %68
  br label %70

70:                                               ; preds = %45, %59
  %.07584 = phi double [ %.07583, %59 ], [ %52, %45 ]
  %.07682 = phi double [ %.07681, %59 ], [ %57, %45 ]
  %storemerge = phi double [ %69, %59 ], [ 0.000000e+00, %45 ]
  %.077 = phi double [ %66, %59 ], [ %0, %45 ]
  store double %storemerge, ptr %3, align 8, !tbaa !52
  %71 = fsub double %.07584, %.077
  %72 = fsub double %.07682, %storemerge
  %73 = fdiv double %71, %72
  %74 = fadd double %31, %39
  %75 = fsub double %74, %storemerge
  %76 = tail call double @llvm.fmuladd.f64(double %73, double %75, double %.077)
  %77 = fmul double %31, %31
  %78 = tail call double @llvm.fmuladd.f64(double %73, double %73, double 1.000000e+00)
  %79 = fneg double %76
  %80 = fmul double %76, %79
  %81 = tail call double @llvm.fmuladd.f64(double %77, double %78, double %80)
  %82 = tail call double @sqrt(double noundef %81) #8, !tbaa !51
  %83 = fmul double %73, %82
  %84 = fcmp ogt double %1, 0.000000e+00
  %85 = fneg double %83
  %.sroa.070.1 = select i1 %84, double %85, double %83
  %86 = fadd double %76, %.sroa.070.1
  %87 = fdiv double %86, %78
  %88 = fneg double %87
  %89 = fmul double %87, %88
  %90 = tail call double @llvm.fmuladd.f64(double %31, double %31, double %89)
  %91 = tail call double @sqrt(double noundef %90) #8, !tbaa !51
  %92 = fneg double %91
  %.sroa.9.1 = select i1 %84, double %92, double %91
  %93 = fadd double %74, %.sroa.9.1
  br label %94

94:                                               ; preds = %4, %70
  %.sroa.070.0 = phi double [ %87, %70 ], [ %0, %4 ]
  %.sroa.9.0 = phi double [ %93, %70 ], [ 0.000000e+00, %4 ]
  %.fca.0.insert = insertvalue { double, double } poison, double %.sroa.070.0, 0
  %.fca.1.insert = insertvalue { double, double } %.fca.0.insert, double %.sroa.9.0, 1
  ret { double, double } %.fca.1.insert
}